target datalayout = "e-m:e-p270:32:32-p271:32:32-p272:64:64-i64:64-i128:128-f80:128-n8:16:32:64-S128"
target triple = "x86_64-pc-linux-gnu"

%struct.Agraph_s = type { %struct.Agobj_s, %struct.Agdesc_s, %struct._dtlink_s, %struct._dtlink_s, ptr, ptr, ptr, ptr, ptr, ptr, ptr, ptr, ptr }
%struct.Agobj_s = type { %struct.Agtag_s, ptr }
%struct.Agtag_s = type { i32, i64 }
%struct.Agdesc_s = type { i8, [3 x i8] }
%struct._dtlink_s = type { ptr, %union.anon }
%union.anon = type { ptr }
%struct.Agclos_s = type { %struct.Agdisc_s, %struct.Agdstate_s, ptr, [3 x i64], ptr, [3 x ptr], [3 x ptr] }
%struct.Agdisc_s = type { ptr, ptr }
%struct.Agdstate_s = type { ptr }
%struct.Agiodisc_s = type { ptr, ptr, ptr }

@Level = internal global i32 0, align 4
@.str = private unnamed_addr constant [11 x i8] c"linelength\00", align 1
@Max_outputline = internal global i32 128, align 4
@.str.18 = private unnamed_addr constant [2 x i8] c"\09\00", align 1
@.str.32 = private unnamed_addr constant [3 x i8] c"}\0A\00", align 1

; Function Attrs: nounwind uwtable
define internal i32 @ioput(ptr noundef %0, ptr noundef %1, ptr noundef %2) #0 {
  %4 = alloca ptr, align 8
  %5 = alloca ptr, align 8
  %6 = alloca ptr, align 8
  store ptr %0, ptr %4, align 8
  store ptr %1, ptr %5, align 8
  store ptr %2, ptr %6, align 8
  %7 = load ptr, ptr %4, align 8
  %8 = getelementptr inbounds %struct.Agraph_s, ptr %7, i32 0, i32 12
  %9 = load ptr, ptr %8, align 8
  %10 = getelementptr inbounds %struct.Agclos_s, ptr %9, i32 0, i32 0
  %11 = getelementptr inbounds %struct.Agdisc_s, ptr %10, i32 0, i32 1
  %12 = load ptr, ptr %11, align 8
  %13 = getelementptr inbounds %struct.Agiodisc_s, ptr %12, i32 0, i32 1
  %14 = load ptr, ptr %13, align 8
  %15 = load ptr, ptr %5, align 8
  %16 = load ptr, ptr %6, align 8
  %17 = call i32 %14(ptr noundef %15, ptr noundef %16)
  ret i32 %17
}

; Function Attrs: nounwind uwtable
define internal i32 @indent(ptr noundef %0, ptr noundef %1) #0 {
  %3 = alloca i32, align 4
  %4 = alloca ptr, align 8
  %5 = alloca ptr, align 8
  %6 = alloca i32, align 4
  store ptr %0, ptr %4, align 8
  store ptr %1, ptr %5, align 8
  %7 = load i32, ptr @Level, align 4
  store i32 %7, ptr %6, align 4
  br label %8

8:                                                ; preds = %18, %2
  %9 = load i32, ptr %6, align 4
  %10 = icmp sgt i32 %9, 0
  br i1 %10, label %11, label %21

11:                                               ; preds = %8
  %12 = load ptr, ptr %4, align 8
  %13 = load ptr, ptr %5, align 8
  %14 = call i32 @ioput(ptr noundef %12, ptr noundef %13, ptr noundef @.str.18)
  %15 = icmp eq i32 %14, -1
  br i1 %15, label %16, label %17

16:                                               ; preds = %11
  store i32 -1, ptr %3, align 4
  br label %22

17:                                               ; preds = %11
  br label %18

18:                                               ; preds = %17
  %19 = load i32, ptr %6, align 4
  %20 = add nsw i32 %19, -1
  store i32 %20, ptr %6, align 4
  br label %8

21:                                               ; preds = %8
  store i32 0, ptr %3, align 4
  br label %22

22:                                               ; preds = %21, %16
  %23 = load i32, ptr %3, align 4
  ret i32 %23
}

; Function Attrs: nounwind uwtable
define internal i32 @write_trl(ptr noundef %0, ptr noundef %1) #0 {
  %3 = alloca i32, align 4
  %4 = alloca ptr, align 8
  %5 = alloca ptr, align 8
  store ptr %0, ptr %4, align 8
  store ptr %1, ptr %5, align 8
  %6 = load i32, ptr @Level, align 4
  %7 = add nsw i32 %6, -1
  store i32 %7, ptr @Level, align 4
  %8 = load ptr, ptr %4, align 8
  %9 = load ptr, ptr %5, align 8
  %10 = call i32 @indent(ptr noundef %8, ptr noundef %9)
  %11 = icmp eq i32 %10, -1
  br i1 %11, label %12, label %13

12:                                               ; preds = %2
  store i32 -1, ptr %3, align 4
  br label %20

13:                                               ; preds = %2
  %14 = load ptr, ptr %4, align 8
  %15 = load ptr, ptr %5, align 8
  %16 = call i32 @ioput(ptr noundef %14, ptr noundef %15, ptr noundef @.str.32)
  %17 = icmp eq i32 %16, -1
  br i1 %17, label %18, label %19

18:                                               ; preds = %13
  store i32 -1, ptr %3, align 4
  br label %20

19:                                               ; preds = %13
  store i32 0, ptr %3, align 4
  br label %20

20:                                               ; preds = %19, %18, %12
  %21 = load i32, ptr %3, align 4
  ret i32 %21
}

; Function Attrs: nounwind uwtable
define internal zeroext i1 @gv_isdigit(i32 noundef %0) #0 {
  %2 = alloca i32, align 4
  store i32 %0, ptr %2, align 4
  %3 = load i32, ptr %2, align 4
  %4 = icmp sge i32 %3, 48
  br i1 %4, label %5, label %8

5:                                                ; preds = %1
  %6 = load i32, ptr %2, align 4
  %7 = icmp sle i32 %6, 57
  br label %8

8:                                                ; preds = %5, %1
  %9 = phi i1 [ false, %1 ], [ %7, %5 ]
  ret i1 %9
}

; Function Attrs: nounwind uwtable
define i32 @agwrite(ptr noundef %0, ptr noundef %1) #0 {
  %3 = alloca i32, align 4
  %4 = alloca ptr, align 8
  %5 = alloca ptr, align 8
  %6 = alloca ptr, align 8
  %7 = alloca i64, align 8
  store ptr %0, ptr %4, align 8
  store ptr %1, ptr %5, align 8
  store i32 0, ptr @Level, align 4
  %8 = load ptr, ptr %4, align 8
  %9 = call ptr @agget(ptr noundef %8, ptr noundef @.str)
  store ptr %9, ptr %6, align 8
  %10 = load ptr, ptr %6, align 8
  %11 = icmp ne ptr %10, null
  br i1 %11, label %12, label %32

12:                                               ; preds = %2
  %13 = load ptr, ptr %6, align 8
  %14 = load i8, ptr %13, align 1
  %15 = sext i8 %14 to i32
  %16 = call zeroext i1 @gv_isdigit(i32 noundef %15)
  br i1 %16, label %17, label %32

17:                                               ; preds = %12
  %18 = load ptr, ptr %6, align 8
  %19 = call i64 @strtoul(ptr noundef %18, ptr noundef null, i32 noundef 10) #5
  store i64 %19, ptr %7, align 8
  %20 = load i64, ptr %7, align 8
  %21 = icmp eq i64 %20, 0
  br i1 %21, label %25, label %22

22:                                               ; preds = %17
  %23 = load i64, ptr %7, align 8
  %24 = icmp uge i64 %23, 60
  br i1 %24, label %25, label %31

25:                                               ; preds = %22, %17
  %26 = load i64, ptr %7, align 8
  %27 = icmp ule i64 %26, 2147483647
  br i1 %27, label %28, label %31

28:                                               ; preds = %25
  %29 = load i64, ptr %7, align 8
  %30 = trunc i64 %29 to i32
  store i32 %30, ptr @Max_outputline, align 4
  br label %31

31:                                               ; preds = %28, %25, %22
  br label %32

32:                                               ; preds = %31, %12, %2
  %33 = load ptr, ptr %4, align 8
  call void @set_attrwf(ptr noundef %33, i1 noundef zeroext true, i1 noundef zeroext false)
  %34 = load ptr, ptr %4, align 8
  %35 = load ptr, ptr %5, align 8
  %36 = call i32 @write_hdr(ptr noundef %34, ptr noundef %35, i1 noundef zeroext true)
  %37 = icmp eq i32 %36, -1
  br i1 %37, label %38, label %39

38:                                               ; preds = %32
  store i32 -1, ptr %3, align 4
  br label %62

39:                                               ; preds = %32
  %40 = load ptr, ptr %4, align 8
  %41 = load ptr, ptr %5, align 8
  %42 = call i32 @write_body(ptr noundef %40, ptr noundef %41)
  %43 = icmp eq i32 %42, -1
  br i1 %43, label %44, label %45

44:                                               ; preds = %39
  store i32 -1, ptr %3, align 4
  br label %62

45:                                               ; preds = %39
  %46 = load ptr, ptr %4, align 8
  %47 = load ptr, ptr %5, align 8
  %48 = call i32 @write_trl(ptr noundef %46, ptr noundef %47)
  %49 = icmp eq i32 %48, -1
  br i1 %49, label %50, label %51

50:                                               ; preds = %45
  store i32 -1, ptr %3, align 4
  br label %62

51:                                               ; preds = %45
  store i32 128, ptr @Max_outputline, align 4
  %52 = load ptr, ptr %4, align 8
  %53 = getelementptr inbounds %struct.Agraph_s, ptr %52, i32 0, i32 12
  %54 = load ptr, ptr %53, align 8
  %55 = getelementptr inbounds %struct.Agclos_s, ptr %54, i32 0, i32 0
  %56 = getelementptr inbounds %struct.Agdisc_s, ptr %55, i32 0, i32 1
  %57 = load ptr, ptr %56, align 8
  %58 = getelementptr inbounds %struct.Agiodisc_s, ptr %57, i32 0, i32 2
  %59 = load ptr, ptr %58, align 8
  %60 = load ptr, ptr %5, align 8
  %61 = call i32 %59(ptr noundef %60)
  store i32 %61, ptr %3, align 4
  br label %62

62:                                               ; preds = %51, %50, %44, %38
  %63 = load i32, ptr %3, align 4
  ret i32 %63
}