; Function Attrs: nounwind uwtable
define i32 @agwrite(ptr noundef %0, ptr noundef %1) local_unnamed_addr #0 {
  store i32 0, ptr @Level, align 4
  %3 = tail call ptr @agget(ptr noundef %0, ptr noundef nonnull @.str) #9
  %.not = icmp eq ptr %3, null
  br i1 %.not, label %15, label %4

4:                                                ; preds = %2
  %5 = load i8, ptr %3, align 1
  %6 = sext i8 %5 to i32
  %7 = add nsw i32 %6, -48
  %8 = icmp ult i32 %7, 10
  br i1 %8, label %9, label %15

9:                                                ; preds = %4
  %10 = tail call i64 @strtoul(ptr noundef nonnull captures(none) %3, ptr noundef null, i32 noundef 10) #9
  %11 = add i64 %10, -60
  %or.cond = icmp ult i64 %11, -59
  %12 = icmp ult i64 %10, 2147483648
  %or.cond3 = and i1 %12, %or.cond
  br i1 %or.cond3, label %13, label %15

13:                                               ; preds = %9
  %14 = trunc nuw nsw i64 %10 to i32
  store i32 %14, ptr @Max_outputline, align 4
  br label %15

15:                                               ; preds = %13, %9, %4, %2
  tail call fastcc void @set_attrwf(ptr noundef %0, i1 noundef zeroext true)
  %16 = tail call fastcc i32 @write_hdr(ptr noundef %0, ptr noundef %1, i1 noundef zeroext true)
  %17 = icmp eq i32 %16, -1
  br i1 %17, label %write_trl.exit.thread, label %18

18:                                               ; preds = %15
  %19 = tail call fastcc i32 @write_body(ptr noundef %0, ptr noundef %1)
  %20 = icmp eq i32 %19, -1
  br i1 %20, label %write_trl.exit.thread, label %21

21:                                               ; preds = %18
  %22 = load i32, ptr @Level, align 4
  %23 = add nsw i32 %22, -1
  store i32 %23, ptr @Level, align 4
  %24 = getelementptr i8, ptr %0, i64 128
  %25 = icmp sgt i32 %22, 1
  br i1 %25, label %.lr.ph.i.i, label %write_trl.exit

26:                                               ; preds = %.lr.ph.i.i
  %27 = add nsw i32 %.05.i.i, -1
  %28 = icmp sgt i32 %.05.i.i, 1
  br i1 %28, label %.lr.ph.i.i, label %write_trl.exit

.lr.ph.i.i:                                       ; preds = %21, %26
  %.05.i.i = phi i32 [ %27, %26 ], [ %23, %21 ]
  %.val.i.i = load ptr, ptr %24, align 8
  %29 = getelementptr i8, ptr %.val.i.i, i64 8
  %.val.val.i.i = load ptr, ptr %29, align 8
  %30 = getelementptr i8, ptr %.val.val.i.i, i64 8
  %.val.val.val.i.i = load ptr, ptr %30, align 8
  %31 = tail call i32 %.val.val.val.i.i(ptr noundef %1, ptr noundef nonnull @.str.18) #9
  %32 = icmp eq i32 %31, -1
  br i1 %32, label %write_trl.exit.thread, label %26

write_trl.exit:                                   ; preds = %26, %21
  %.val.i = load ptr, ptr %24, align 8
  %33 = getelementptr i8, ptr %.val.i, i64 8
  %.val.val.i = load ptr, ptr %33, align 8
  %34 = getelementptr i8, ptr %.val.val.i, i64 8
  %.val.val.val.i = load ptr, ptr %34, align 8
  %35 = tail call i32 %.val.val.val.i(ptr noundef %1, ptr noundef nonnull @.str.32) #9
  %36 = icmp eq i32 %35, -1
  br i1 %36, label %write_trl.exit.thread, label %37

37:                                               ; preds = %write_trl.exit
  store i32 128, ptr @Max_outputline, align 4
  %38 = load ptr, ptr %24, align 8
  %39 = getelementptr inbounds nuw i8, ptr %38, i64 8
  %40 = load ptr, ptr %39, align 8
  %41 = getelementptr inbounds nuw i8, ptr %40, i64 16
  %42 = load ptr, ptr %41, align 8
  %43 = tail call i32 %42(ptr noundef %1) #9
  br label %write_trl.exit.thread

write_trl.exit.thread:                            ; preds = %.lr.ph.i.i, %write_trl.exit, %18, %15, %37
  %.0 = phi i32 [ %43, %37 ], [ -1, %15 ], [ -1, %18 ], [ -1, %write_trl.exit ], [ -1, %.lr.ph.i.i ]
  ret i32 %.0
}